Certificate:
    Data:
        Version: 3 (0x2)
        Serial Number:
            a9:1c:61:3b:d9:ea:99:93
        Signature Algorithm: sha1WithRSAEncryption
        Issuer: CN=localhost
        Validity
            Not Before: Oct 20 20:42:15 2018 GMT
            Not After : Nov 19 20:42:15 2018 GMT
        Subject: CN=localhost
        Subject Public Key Info:
            Public Key Algorithm: rsaEncryption
            RSA Public Key: (1024 bit)
                Modulus (1024 bit):
                    00:c3:c3:bd:24:e3:50:55:76:82:58:36:9f:b2:b9:
                    32:0b:60:57:d9:3e:4b:85:88:08:06:0a:95:ae:7b:
                    22:0b:70:0b:e5:b0:cb:b1:1e:f6:32:9c:33:17:b6:
                    04:d9:4e:c7:63:8e:98:34:8f:be:4c:7f:fa:fa:e7:
                    15:fe:7a:8d:2e:e2:c0:a9:b0:7f:d0:5d:86:ea:7f:
                    4e:6e:8d:7c:50:e8:bb:bd:e4:85:79:43:e8:98:ce:
                    65:80:b2:81:3c:1c:a5:b5:d9:6a:4f:45:84:c8:8d:
                    35:93:55:96:7d:c5:2b:71:1e:df:ce:28:85:f4:b3:
                    6c:ae:4f:52:a6:e7:f6:81:cf
                Exponent: 65537 (0x10001)
        X509v3 extensions:
            X509v3 Subject Key Identifier: 
                54:10:4F:EB:80:A3:69:B3:76:2D:77:02:33:CD:AA:B4:41:7A:2F:37
            X509v3 Authority Key Identifier: 
                keyid:54:10:4F:EB:80:A3:69:B3:76:2D:77:02:33:CD:AA:B4:41:7A:2F:37
                DirName:/CN=localhost
                serial:A9:1C:61:3B:D9:EA:99:93

            X509v3 Basic Constraints: 
                CA:TRUE
    Signature Algorithm: sha1WithRSAEncryption
        62:50:e8:36:46:bc:c3:0b:7a:5e:c7:8c:94:33:2b:07:08:0e:
        dd:76:02:d3:e4:d3:b5:eb:da:bb:30:af:4e:2c:a6:d6:02:55:
        ac:3d:ca:0f:59:b3:74:21:a0:23:23:63:2e:4c:9e:d5:e9:59:
        e8:c7:84:bc:51:b5:63:d7:5e:7d:1c:33:fd:04:dc:5f:1c:8a:
        60:d2:c8:48:67:69:c6:d3:9b:e1:3b:a0:fd:e1:4a:6a:a0:2e:
        2d:25:93:77:5c:17:dd:be:db:df:b2:91:4c:c9:72:35:a0:aa:
        38:d0:2f:3a:e2:1e:e2:85:c2:95:1c:cd:ad:3f:b7:83:dc:c0:
        c3:b4
-----BEGIN CERTIFICATE-----
MIICGzCCAYSgAwIBAgIJAKkcYTvZ6pmTMA0GCSqGSIb3DQEBBQUAMBQxEjAQBgNV
BAMTCWxvY2FsaG9zdDAeFw0xODEwMjAyMDQyMTVaFw0xODExMTkyMDQyMTVaMBQx
EjAQBgNVBAMTCWxvY2FsaG9zdDCBnzANBgkqhkiG9w0BAQEFAAOBjQAwgYkCgYEA
w8O9JONQVXaCWDafsrkyC2BX2T5LhYgIBgqVrnsiC3AL5bDLsR72MpwzF7YE2U7H
Y46YNI++TH/6+ucV/nqNLuLAqbB/0F2G6n9Obo18UOi7veSFeUPomM5lgLKBPByl
tdlqT0WEyI01k1WWfcUrcR7fziiF9LNsrk9Spuf2gc8CAwEAAaN1MHMwHQYDVR0O
BBYEFFQQT+uAo2mzdi13AjPNqrRBei83MEQGA1UdIwQ9MDuAFFQQT+uAo2mzdi13
AjPNqrRBei83oRikFjAUMRIwEAYDVQQDEwlsb2NhbGhvc3SCCQCpHGE72eqZkzAM
BgNVHRMEBTADAQH/MA0GCSqGSIb3DQEBBQUAA4GBAGJQ6DZGvMMLel7HjJQzKwcI
Dt12AtPk07Xr2rswr04sptYCVaw9yg9Zs3QhoCMjYy5MntXpWejHhLxRtWPXXn0c
M/0E3F8cimDSyEhnacbTm+E7oP3hSmqgLi0lk3dcF92+29+ykUzJcjWgqjjQLzri
HuKFwpUcza0/t4PcwMO0
-----END CERTIFICATE-----
